; Function Attrs: nounwind sspstrong uwtable
define internal range(i64 0, 21) i64 @int_nobits_p(i64 noundef %0, i64 noundef %1) #2 {
  %3 = tail call i64 @rb_to_int(i64 noundef %1) #26
  %4 = tail call i64 @rb_int_and(i64 noundef %0, i64 noundef %3)
  %5 = and i64 %4, 1
  %.not.i = icmp eq i64 %5, 0
  br i1 %.not.i, label %8, label %6

6:                                                ; preds = %2
  %7 = icmp eq i64 %4, 1
  br label %int_zero_p.exit

8:                                                ; preds = %2
  %9 = tail call i32 @rb_bigzero_p(i64 noundef %4) #26
  %10 = icmp ne i32 %9, 0
  br label %int_zero_p.exit

int_zero_p.exit:                                  ; preds = %6, %8
  %.0.i = phi i1 [ %7, %6 ], [ %10, %8 ]
  %11 = select i1 %.0.i, i64 20, i64 0
  ret i64 %11
}